target datalayout = "e-m:e-p270:32:32-p271:32:32-p272:64:64-i64:64-i128:128-f80:128-n8:16:32:64-S128"
target triple = "x86_64-pc-linux-gnu"

%struct.ClusterInfo = type { %struct.ControlData, ptr, %struct.DbInfoArr, ptr, ptr, ptr, ptr, ptr, i16, i32, [64 x i8], i32, ptr, i32 }
%struct.ControlData = type { i32, i32, [25 x i8], i32, i32, i32, i32, i32, i32, i32, i32, i32, i32, i32, i32, i32, i32, i32, i32, i8, i8, i32 }
%struct.DbInfoArr = type { ptr, i32 }
%struct.PQExpBufferData = type { ptr, i64, i64 }
%struct.DbInfo = type { i32, ptr, [1024 x i8], %struct.RelInfoArr, %struct.LogicalSlotInfoArr }
%struct.RelInfoArr = type { ptr, i32 }
%struct.LogicalSlotInfoArr = type { i32, ptr }

@.str = private unnamed_addr constant [17 x i8] c"reindex_hash.sql\00", align 1
@.str.1 = private unnamed_addr constant [26 x i8] c"Checking for hash indexes\00", align 1
@.str.3 = private unnamed_addr constant [8 x i8] c"nspname\00", align 1
@.str.4 = private unnamed_addr constant [8 x i8] c"relname\00", align 1
@.str.5 = private unnamed_addr constant [2 x i8] c"w\00", align 1
@.str.6 = private unnamed_addr constant [29 x i8] c"could not open file \22%s\22: %m\00", align 1
@.str.7 = private unnamed_addr constant [22 x i8] c"REINDEX INDEX %s.%s;\0A\00", align 1
@.str.9 = private unnamed_addr constant [8 x i8] c"warning\00", align 1

; Function Attrs: nounwind uwtable
define dso_local void @old_9_6_invalidate_hash_indexes(ptr noundef %0, i1 noundef zeroext %1) #0 {
  %3 = alloca ptr, align 8
  %4 = alloca i8, align 1
  %5 = alloca i32, align 4
  %6 = alloca ptr, align 8
  %7 = alloca i8, align 1
  %8 = alloca ptr, align 8
  %9 = alloca ptr, align 8
  %10 = alloca i8, align 1
  %11 = alloca i32, align 4
  %12 = alloca i32, align 4
  %13 = alloca i32, align 4
  %14 = alloca i32, align 4
  %15 = alloca ptr, align 8
  %16 = alloca ptr, align 8
  %17 = alloca %struct.PQExpBufferData, align 8
  store ptr %0, ptr %3, align 8
  %18 = zext i1 %1 to i8
  store i8 %18, ptr %4, align 1
  call void @llvm.lifetime.start.p0(i64 4, ptr %5) #5
  call void @llvm.lifetime.start.p0(i64 8, ptr %6) #5
  store ptr null, ptr %6, align 8
  call void @llvm.lifetime.start.p0(i64 1, ptr %7) #5
  store i8 0, ptr %7, align 1
  call void @llvm.lifetime.start.p0(i64 8, ptr %8) #5
  store ptr @.str, ptr %8, align 8
  call void (ptr, ...) @prep_status(ptr noundef @.str.1)
  store i32 0, ptr %5, align 4
  br label %19

19:                                               ; preds = %103, %2
  %20 = load i32, ptr %5, align 4
  %21 = load ptr, ptr %3, align 8
  %22 = getelementptr inbounds nuw %struct.ClusterInfo, ptr %21, i32 0, i32 2
  %23 = getelementptr inbounds nuw %struct.DbInfoArr, ptr %22, i32 0, i32 1
  %24 = load i32, ptr %23, align 8
  %25 = icmp slt i32 %20, %24
  br i1 %25, label %26, label %106

26:                                               ; preds = %19
  call void @llvm.lifetime.start.p0(i64 8, ptr %9) #5
  call void @llvm.lifetime.start.p0(i64 1, ptr %10) #5
  store i8 0, ptr %10, align 1
  call void @llvm.lifetime.start.p0(i64 4, ptr %11) #5
  call void @llvm.lifetime.start.p0(i64 4, ptr %12) #5
  call void @llvm.lifetime.start.p0(i64 4, ptr %13) #5
  call void @llvm.lifetime.start.p0(i64 4, ptr %14) #5
  call void @llvm.lifetime.start.p0(i64 8, ptr %15) #5
  %27 = load ptr, ptr %3, align 8
  %28 = getelementptr inbounds nuw %struct.ClusterInfo, ptr %27, i32 0, i32 2
  %29 = getelementptr inbounds nuw %struct.DbInfoArr, ptr %28, i32 0, i32 0
  %30 = load ptr, ptr %29, align 8
  %31 = load i32, ptr %5, align 4
  %32 = sext i32 %31 to i64
  %33 = getelementptr inbounds %struct.DbInfo, ptr %30, i64 %32
  store ptr %33, ptr %15, align 8
  call void @llvm.lifetime.start.p0(i64 8, ptr %16) #5
  %34 = load ptr, ptr %3, align 8
  %35 = load ptr, ptr %15, align 8
  %36 = getelementptr inbounds nuw %struct.DbInfo, ptr %35, i32 0, i32 1
  %37 = load ptr, ptr %36, align 8
  %38 = call ptr @connectToServer(ptr noundef %34, ptr noundef %37)
  store ptr %38, ptr %16, align 8
  %39 = load ptr, ptr %16, align 8
  %40 = call ptr (ptr, ptr, ...) @executeQueryOrDie(ptr noundef %39, ptr noundef @.str.2)
  store ptr %40, ptr %9, align 8
  %41 = load ptr, ptr %9, align 8
  %42 = call i32 @PQntuples(ptr noundef %41)
  store i32 %42, ptr %11, align 4
  %43 = load ptr, ptr %9, align 8
  %44 = call i32 @PQfnumber(ptr noundef %43, ptr noundef @.str.3)
  store i32 %44, ptr %13, align 4
  %45 = load ptr, ptr %9, align 8
  %46 = call i32 @PQfnumber(ptr noundef %45, ptr noundef @.str.4)
  store i32 %46, ptr %14, align 4
  store i32 0, ptr %12, align 4
  br label %47

47:                                               ; preds = %88, %26
  %48 = load i32, ptr %12, align 4
  %49 = load i32, ptr %11, align 4
  %50 = icmp slt i32 %48, %49
  br i1 %50, label %51, label %91

51:                                               ; preds = %47
  store i8 1, ptr %7, align 1
  %52 = load i8, ptr %4, align 1, !range !4, !noundef !5
  %53 = trunc i8 %52 to i1
  br i1 %53, label %87, label %54

54:                                               ; preds = %51
  %55 = load ptr, ptr %6, align 8
  %56 = icmp eq ptr %55, null
  br i1 %56, label %57, label %63

57:                                               ; preds = %54
  %58 = load ptr, ptr %8, align 8
  %59 = call noalias ptr @fopen(ptr noundef %58, ptr noundef @.str.5)
  store ptr %59, ptr %6, align 8
  %60 = icmp eq ptr %59, null
  br i1 %60, label %61, label %63

61:                                               ; preds = %57
  %62 = load ptr, ptr %8, align 8
  call void (ptr, ...) @pg_fatal(ptr noundef @.str.6, ptr noundef %62) #6
  unreachable

63:                                               ; preds = %57, %54
  %64 = load i8, ptr %10, align 1, !range !4, !noundef !5
  %65 = trunc i8 %64 to i1
  br i1 %65, label %74, label %66

66:                                               ; preds = %63
  call void @llvm.lifetime.start.p0(i64 24, ptr %17) #5
  call void @initPQExpBuffer(ptr noundef %17)
  %67 = load ptr, ptr %15, align 8
  %68 = getelementptr inbounds nuw %struct.DbInfo, ptr %67, i32 0, i32 1
  %69 = load ptr, ptr %68, align 8
  call void @appendPsqlMetaConnect(ptr noundef %17, ptr noundef %69)
  %70 = getelementptr inbounds nuw %struct.PQExpBufferData, ptr %17, i32 0, i32 0
  %71 = load ptr, ptr %70, align 8
  %72 = load ptr, ptr %6, align 8
  %73 = call i32 @fputs(ptr noundef %71, ptr noundef %72)
  call void @termPQExpBuffer(ptr noundef %17)
  store i8 1, ptr %10, align 1
  call void @llvm.lifetime.end.p0(i64 24, ptr %17) #5
  br label %74

74:                                               ; preds = %66, %63
  %75 = load ptr, ptr %6, align 8
  %76 = load ptr, ptr %9, align 8
  %77 = load i32, ptr %12, align 4
  %78 = load i32, ptr %13, align 4
  %79 = call ptr @PQgetvalue(ptr noundef %76, i32 noundef %77, i32 noundef %78)
  %80 = call ptr @quote_identifier(ptr noundef %79)
  %81 = load ptr, ptr %9, align 8
  %82 = load i32, ptr %12, align 4
  %83 = load i32, ptr %14, align 4
  %84 = call ptr @PQgetvalue(ptr noundef %81, i32 noundef %82, i32 noundef %83)
  %85 = call ptr @quote_identifier(ptr noundef %84)
  %86 = call i32 (ptr, ptr, ...) @pg_fprintf(ptr noundef %75, ptr noundef @.str.7, ptr noundef %80, ptr noundef %85)
  br label %87

87:                                               ; preds = %74, %51
  br label %88

88:                                               ; preds = %87
  %89 = load i32, ptr %12, align 4
  %90 = add i32 %89, 1
  store i32 %90, ptr %12, align 4
  br label %47, !llvm.loop !6

91:                                               ; preds = %47
  %92 = load ptr, ptr %9, align 8
  call void @PQclear(ptr noundef %92)
  %93 = load i8, ptr %4, align 1, !range !4, !noundef !5
  %94 = trunc i8 %93 to i1
  br i1 %94, label %101, label %95

95:                                               ; preds = %91
  %96 = load i8, ptr %10, align 1, !range !4, !noundef !5
  %97 = trunc i8 %96 to i1
  br i1 %97, label %98, label %101

98:                                               ; preds = %95
  %99 = load ptr, ptr %16, align 8
  %100 = call ptr (ptr, ptr, ...) @executeQueryOrDie(ptr noundef %99, ptr noundef @.str.8)
  call void @PQclear(ptr noundef %100)
  br label %101

101:                                              ; preds = %98, %95, %91
  %102 = load ptr, ptr %16, align 8
  call void @PQfinish(ptr noundef %102)
  call void @llvm.lifetime.end.p0(i64 8, ptr %16) #5
  call void @llvm.lifetime.end.p0(i64 8, ptr %15) #5
  call void @llvm.lifetime.end.p0(i64 4, ptr %14) #5
  call void @llvm.lifetime.end.p0(i64 4, ptr %13) #5
  call void @llvm.lifetime.end.p0(i64 4, ptr %12) #5
  call void @llvm.lifetime.end.p0(i64 4, ptr %11) #5
  call void @llvm.lifetime.end.p0(i64 1, ptr %10) #5
  call void @llvm.lifetime.end.p0(i64 8, ptr %9) #5
  br label %103

103:                                              ; preds = %101
  %104 = load i32, ptr %5, align 4
  %105 = add i32 %104, 1
  store i32 %105, ptr %5, align 4
  br label %19, !llvm.loop !8

106:                                              ; preds = %19
  %107 = load ptr, ptr %6, align 8
  %108 = icmp ne ptr %107, null
  br i1 %108, label %109, label %112

109:                                              ; preds = %106
  %110 = load ptr, ptr %6, align 8
  %111 = call i32 @fclose(ptr noundef %110)
  br label %112

112:                                              ; preds = %109, %106
  %113 = load i8, ptr %7, align 1, !range !4, !noundef !5
  %114 = trunc i8 %113 to i1
  br i1 %114, label %115, label %122

115:                                              ; preds = %112
  call void (i32, ptr, ...) @report_status(i32 noundef 4, ptr noundef @.str.9)
  %116 = load i8, ptr %4, align 1, !range !4, !noundef !5
  %117 = trunc i8 %116 to i1
  br i1 %117, label %118, label %119

118:                                              ; preds = %115
  call void (i32, ptr, ...) @pg_log(i32 noundef 4, ptr noundef @.str.10)
  br label %121

119:                                              ; preds = %115
  %120 = load ptr, ptr %8, align 8
  call void (i32, ptr, ...) @pg_log(i32 noundef 4, ptr noundef @.str.11, ptr noundef %120)
  br label %121

121:                                              ; preds = %119, %118
  br label %123

122:                                              ; preds = %112
  call void @check_ok()
  br label %123

123:                                              ; preds = %122, %121
  call void @llvm.lifetime.end.p0(i64 8, ptr %8) #5
  call void @llvm.lifetime.end.p0(i64 1, ptr %7) #5
  call void @llvm.lifetime.end.p0(i64 8, ptr %6) #5
  call void @llvm.lifetime.end.p0(i64 4, ptr %5) #5
  ret void
}